target datalayout = "e-m:e-p270:32:32-p271:32:32-p272:64:64-i64:64-i128:128-f80:128-n8:16:32:64-S128"
target triple = "x86_64-pc-linux-gnu"

%"class.std::__cxx11::basic_string" = type { %"struct.std::__cxx11::basic_string<char>::_Alloc_hider", i64, %union.anon }
%"struct.std::__cxx11::basic_string<char>::_Alloc_hider" = type { ptr }
%union.anon = type { i64, [8 x i8] }

@_ZZN32pxrInternal_v0_24__pxrReserved__13ArchMemAdviseEPKvmNS_13ArchMemAdviceEE4mask = internal global i64 0, align 8
@_ZGVZN32pxrInternal_v0_24__pxrReserved__13ArchMemAdviseEPKvmNS_13ArchMemAdviceEE4mask = internal global i64 0, align 8
@__const._ZN32pxrInternal_v0_24__pxrReserved__13ArchMemAdviseEPKvmNS_13ArchMemAdviceE.adviceMap = private unnamed_addr constant [4 x i32] [i32 0, i32 3, i32 4, i32 1], align 16
@stderr = external global ptr, align 8
@.str.7 = private unnamed_addr constant [61 x i8] c"failed call to posix_madvise(%zd, %zd)ret=%d, errno=%d '%s'\0A\00", align 1

; Function Attrs: mustprogress uwtable
define void @_ZN32pxrInternal_v0_24__pxrReserved__13ArchMemAdviseEPKvmNS_13ArchMemAdviceE(ptr noundef %0, i64 noundef %1, i32 noundef %2) #0 {
  %4 = alloca ptr, align 8
  %5 = alloca i64, align 8
  %6 = alloca i32, align 4
  %7 = alloca i64, align 8
  %8 = alloca i64, align 8
  %9 = alloca [4 x i32], align 16
  %10 = alloca i32, align 4
  %11 = alloca %"class.std::__cxx11::basic_string", align 8
  store ptr %0, ptr %4, align 8
  store i64 %1, ptr %5, align 8
  store i32 %2, ptr %6, align 4
  %12 = load atomic i8, ptr @_ZGVZN32pxrInternal_v0_24__pxrReserved__13ArchMemAdviseEPKvmNS_13ArchMemAdviceEE4mask acquire, align 8
  %13 = icmp eq i8 %12, 0
  br i1 %13, label %14, label %21, !prof !7

14:                                               ; preds = %3
  %15 = call i32 @__cxa_guard_acquire(ptr @_ZGVZN32pxrInternal_v0_24__pxrReserved__13ArchMemAdviseEPKvmNS_13ArchMemAdviceEE4mask) #6
  %16 = icmp ne i32 %15, 0
  br i1 %16, label %17, label %21

17:                                               ; preds = %14
  %18 = call i64 @sysconf(i32 noundef 30) #6
  %19 = sub i64 %18, 1
  %20 = xor i64 %19, -1
  store i64 %20, ptr @_ZZN32pxrInternal_v0_24__pxrReserved__13ArchMemAdviseEPKvmNS_13ArchMemAdviceEE4mask, align 8
  call void @__cxa_guard_release(ptr @_ZGVZN32pxrInternal_v0_24__pxrReserved__13ArchMemAdviseEPKvmNS_13ArchMemAdviceEE4mask) #6
  br label %21

21:                                               ; preds = %17, %14, %3
  %22 = load ptr, ptr %4, align 8
  %23 = ptrtoint ptr %22 to i64
  store i64 %23, ptr %7, align 8
  %24 = load i64, ptr %7, align 8
  %25 = load i64, ptr @_ZZN32pxrInternal_v0_24__pxrReserved__13ArchMemAdviseEPKvmNS_13ArchMemAdviceEE4mask, align 8
  %26 = and i64 %24, %25
  store i64 %26, ptr %8, align 8
  call void @llvm.memcpy.p0.p0.i64(ptr align 16 %9, ptr align 16 @__const._ZN32pxrInternal_v0_24__pxrReserved__13ArchMemAdviseEPKvmNS_13ArchMemAdviceE.adviceMap, i64 16, i1 false)
  %27 = load i64, ptr %8, align 8
  %28 = inttoptr i64 %27 to ptr
  %29 = load i64, ptr %5, align 8
  %30 = load i64, ptr %7, align 8
  %31 = load i64, ptr %8, align 8
  %32 = sub i64 %30, %31
  %33 = add i64 %29, %32
  %34 = load i32, ptr %6, align 4
  %35 = zext i32 %34 to i64
  %36 = getelementptr inbounds [4 x i32], ptr %9, i64 0, i64 %35
  %37 = load i32, ptr %36, align 4
  %38 = call i32 @posix_madvise(ptr noundef %28, i64 noundef %33, i32 noundef %37) #6
  store i32 %38, ptr %10, align 4
  %39 = load i32, ptr %10, align 4
  %40 = icmp ne i32 %39, 0
  br i1 %40, label %41, label %54

41:                                               ; preds = %21
  %42 = load ptr, ptr @stderr, align 8
  %43 = load i64, ptr %8, align 8
  %44 = load i64, ptr %5, align 8
  %45 = load i64, ptr %7, align 8
  %46 = load i64, ptr %8, align 8
  %47 = sub i64 %45, %46
  %48 = add i64 %44, %47
  %49 = load i32, ptr %10, align 4
  %50 = call ptr @__errno_location() #16
  %51 = load i32, ptr %50, align 4
  call void @_ZN32pxrInternal_v0_24__pxrReserved__12ArchStrerrorB5cxx11Ev(ptr dead_on_unwind writable sret(%"class.std::__cxx11::basic_string") align 8 %11)
  %52 = call noundef ptr @_ZNKSt7__cxx1112basic_stringIcSt11char_traitsIcESaIcEE5c_strEv(ptr noundef nonnull align 8 dereferenceable(32) %11) #6
  %53 = call i32 (ptr, ptr, ...) @fprintf(ptr noundef %42, ptr noundef @.str.7, i64 noundef %43, i64 noundef %48, i32 noundef %49, i32 noundef %51, ptr noundef %52) #6
  call void @_ZNSt7__cxx1112basic_stringIcSt11char_traitsIcESaIcEED1Ev(ptr noundef nonnull align 8 dereferenceable(32) %11) #6
  br label %54

54:                                               ; preds = %41, %21
  ret void
}