; Function Attrs: mustprogress uwtable
define void @_ZN32pxrInternal_v0_24__pxrReserved__13ArchMemAdviseEPKvmNS_13ArchMemAdviceE(ptr noundef %0, i64 noundef %1, i32 noundef %2) local_unnamed_addr #6 {
  %4 = alloca %"class.std::__cxx11::basic_string", align 8
  %5 = load atomic i8, ptr @_ZGVZN32pxrInternal_v0_24__pxrReserved__13ArchMemAdviseEPKvmNS_13ArchMemAdviceEE4mask acquire, align 8
  %6 = icmp eq i8 %5, 0
  br i1 %6, label %7, label %12, !prof !23

7:                                                ; preds = %3
  %8 = tail call i32 @__cxa_guard_acquire(ptr nonnull @_ZGVZN32pxrInternal_v0_24__pxrReserved__13ArchMemAdviseEPKvmNS_13ArchMemAdviceEE4mask) #23
  %.not = icmp eq i32 %8, 0
  br i1 %.not, label %12, label %9

9:                                                ; preds = %7
  %10 = tail call i64 @sysconf(i32 noundef 30) #23
  %11 = sub i64 0, %10
  store i64 %11, ptr @_ZZN32pxrInternal_v0_24__pxrReserved__13ArchMemAdviseEPKvmNS_13ArchMemAdviceEE4mask, align 8
  tail call void @__cxa_guard_release(ptr nonnull @_ZGVZN32pxrInternal_v0_24__pxrReserved__13ArchMemAdviseEPKvmNS_13ArchMemAdviceEE4mask) #23
  br label %12

12:                                               ; preds = %9, %7, %3
  %13 = ptrtoint ptr %0 to i64
  %14 = load i64, ptr @_ZZN32pxrInternal_v0_24__pxrReserved__13ArchMemAdviseEPKvmNS_13ArchMemAdviceEE4mask, align 8
  %15 = and i64 %14, %13
  %16 = inttoptr i64 %15 to ptr
  %17 = sub i64 %13, %15
  %18 = add i64 %17, %1
  %19 = zext i32 %2 to i64
  %20 = getelementptr inbounds nuw [4 x i32], ptr @__const._ZN32pxrInternal_v0_24__pxrReserved__14ArchFileAdviseEP8_IO_FILElmNS_14ArchFileAdviceE.adviceMap, i64 0, i64 %19
  %21 = load i32, ptr %20, align 4
  %22 = tail call i32 @posix_madvise(ptr noundef %16, i64 noundef %18, i32 noundef %21) #23
  %.not12 = icmp eq i32 %22, 0
  br i1 %.not12, label %29, label %23

23:                                               ; preds = %12
  %24 = load ptr, ptr @stderr, align 8
  %25 = tail call ptr @__errno_location() #27
  %26 = load i32, ptr %25, align 4
  call void @_ZN32pxrInternal_v0_24__pxrReserved__12ArchStrerrorB5cxx11Ev(ptr dead_on_unwind nonnull writable sret(%"class.std::__cxx11::basic_string") align 8 %4)
  %27 = call noundef ptr @_ZNKSt7__cxx1112basic_stringIcSt11char_traitsIcESaIcEE5c_strEv(ptr noundef nonnull align 8 dereferenceable(32) %4) #23
  %28 = call i32 (ptr, ptr, ...) @fprintf(ptr noundef %24, ptr noundef nonnull @.str.7, i64 noundef %15, i64 noundef %18, i32 noundef %22, i32 noundef %26, ptr noundef %27) #28
  call void @_ZNSt7__cxx1112basic_stringIcSt11char_traitsIcESaIcEED1Ev(ptr noundef nonnull align 8 dereferenceable(32) %4) #23
  br label %29

29:                                               ; preds = %23, %12
  ret void
}